target datalayout = "e-m:e-p270:32:32-p271:32:32-p272:64:64-i64:64-i128:128-f80:128-n8:16:32:64-S128"
target triple = "x86_64-pc-linux-gnu"

%struct._zend_executor_globals = type { %struct._zval_struct, %struct._zval_struct, [32 x ptr], ptr, ptr, %struct._zend_array, %struct._zend_array, ptr, i32, i32, ptr, ptr, ptr, ptr, ptr, ptr, i64, ptr, ptr, i32, i32, i64, i32, i32, i32, i8, i8, %struct.zend_atomic_bool_s, %struct.zend_atomic_bool_s, ptr, i64, ptr, ptr, %struct._zend_array, %struct._zend_array, i32, i8, %struct._zval_struct, %struct._zval_struct, %struct._zend_stack, %struct._zend_stack, %struct._zend_stack, ptr, i32, i32, i64, ptr, ptr, ptr, %struct._zend_objects_store, ptr, ptr, ptr, [3 x %struct._zend_op], ptr, i8, i8, i64, i32, i32, ptr, [16 x %struct._HashTableIterator], ptr, %union._zend_function, %struct._zend_op, %struct._zend_array, i64, %struct.zend_get_gc_buffer, ptr, ptr, ptr, i64, i8, i32, ptr, ptr, i64, %struct._zend_call_stack, i64, i64, [6 x ptr] }
%struct.zend_atomic_bool_s = type { i8 }
%struct._zval_struct = type { %union._zend_value, %union.anon, %union.anon.2 }
%union._zend_value = type { i64 }
%union.anon = type { i32 }
%union.anon.2 = type { i32 }
%struct._zend_stack = type { i32, i32, i32, ptr }
%struct._zend_objects_store = type { ptr, i32, i32, i32 }
%struct._HashTableIterator = type { ptr, i32, i32 }
%union._zend_function = type { %struct._zend_op_array }
%struct._zend_op_array = type { i8, [3 x i8], i32, ptr, ptr, ptr, i32, i32, ptr, ptr, ptr, ptr, i32, i32, i32, i32, ptr, ptr, ptr, ptr, ptr, i32, i32, ptr, ptr, ptr, i32, i32, i32, i32, ptr, ptr, [6 x ptr] }
%struct._zend_op = type { ptr, %union._znode_op, %union._znode_op, %union._znode_op, i32, i32, i8, i8, i8, i8 }
%union._znode_op = type { i32 }
%struct._zend_array = type { %struct._zend_refcounted_h, %union.anon.4, i32, %union.anon.6, i32, i32, i32, i32, i64, ptr }
%struct._zend_refcounted_h = type { i32, %union.anon.3 }
%union.anon.3 = type { i32 }
%union.anon.4 = type { i32 }
%union.anon.6 = type { ptr }
%struct.zend_get_gc_buffer = type { ptr, ptr, ptr }
%struct._zend_call_stack = type { ptr, i64 }
%struct._spl_heap_object = type { ptr, i32, ptr, ptr, %struct._zend_object }
%struct._zend_object = type { %struct._zend_refcounted_h, i32, ptr, ptr, ptr, [1 x %struct._zval_struct] }

@executor_globals = external global %struct._zend_executor_globals, align 8
@.str.6 = private unnamed_addr constant [8 x i8] c"compare\00", align 1

; Function Attrs: nounwind uwtable
define internal i32 @spl_ptr_heap_cmp_cb_helper(ptr noundef %0, ptr noundef %1, ptr noundef %2, ptr noundef %3, ptr noundef %4) #0 {
  %6 = alloca ptr, align 8
  %7 = alloca ptr, align 8
  %8 = alloca ptr, align 8
  %9 = alloca ptr, align 8
  %10 = alloca ptr, align 8
  %11 = alloca ptr, align 8
  %12 = alloca ptr, align 8
  %13 = alloca ptr, align 8
  %14 = alloca ptr, align 8
  %15 = alloca i32, align 4
  %16 = alloca ptr, align 8
  %17 = alloca ptr, align 8
  %18 = alloca ptr, align 8
  %19 = alloca ptr, align 8
  %20 = alloca ptr, align 8
  %21 = alloca %struct._zval_struct, align 8
  store ptr %0, ptr %16, align 8
  store ptr %1, ptr %17, align 8
  store ptr %2, ptr %18, align 8
  store ptr %3, ptr %19, align 8
  store ptr %4, ptr %20, align 8
  %22 = load ptr, ptr %16, align 8
  %23 = getelementptr inbounds %struct._zval_struct, ptr %22, i32 0, i32 0
  %24 = load ptr, ptr %23, align 8
  %25 = load ptr, ptr %17, align 8
  %26 = getelementptr inbounds %struct._spl_heap_object, ptr %25, i32 0, i32 4
  %27 = getelementptr inbounds %struct._zend_object, ptr %26, i32 0, i32 2
  %28 = load ptr, ptr %27, align 8
  %29 = load ptr, ptr %17, align 8
  %30 = getelementptr inbounds %struct._spl_heap_object, ptr %29, i32 0, i32 2
  %31 = load ptr, ptr %18, align 8
  %32 = load ptr, ptr %19, align 8
  store ptr %24, ptr %8, align 8
  store ptr %28, ptr %9, align 8
  store ptr %30, ptr %10, align 8
  store ptr @.str.6, ptr %11, align 8
  store ptr %21, ptr %12, align 8
  store ptr %31, ptr %13, align 8
  store ptr %32, ptr %14, align 8
  %33 = load ptr, ptr %8, align 8
  %34 = load ptr, ptr %9, align 8
  %35 = load ptr, ptr %10, align 8
  %36 = load ptr, ptr %11, align 8
  %37 = load ptr, ptr %11, align 8
  %38 = call i64 @strlen(ptr noundef %37) #10
  %39 = load ptr, ptr %12, align 8
  %40 = load ptr, ptr %13, align 8
  %41 = load ptr, ptr %14, align 8
  %42 = call ptr @zend_call_method(ptr noundef %33, ptr noundef %34, ptr noundef %35, ptr noundef %36, i64 noundef %38, ptr noundef %39, i32 noundef 2, ptr noundef %40, ptr noundef %41) #9
  %43 = load ptr, ptr getelementptr inbounds (%struct._zend_executor_globals, ptr @executor_globals, i32 0, i32 50), align 8
  %44 = icmp ne ptr %43, null
  br i1 %44, label %45, label %46

45:                                               ; preds = %5
  store i32 -1, ptr %15, align 4
  br label %62

46:                                               ; preds = %5
  store ptr %21, ptr %7, align 8
  %47 = load ptr, ptr %7, align 8
  store ptr %47, ptr %6, align 8
  %48 = load ptr, ptr %6, align 8
  %49 = getelementptr inbounds %struct._zval_struct, ptr %48, i32 0, i32 1
  %50 = load i8, ptr %49, align 8
  %51 = zext i8 %50 to i32
  %52 = icmp eq i32 %51, 4
  br i1 %52, label %53, label %56

53:                                               ; preds = %46
  %54 = load ptr, ptr %7, align 8
  %55 = load i64, ptr %54, align 8
  br label %59

56:                                               ; preds = %46
  %57 = load ptr, ptr %7, align 8
  %58 = call i64 @zval_get_long_func(ptr noundef %57, i1 noundef zeroext false) #9
  br label %59

59:                                               ; preds = %56, %53
  %60 = phi i64 [ %55, %53 ], [ %58, %56 ]
  %61 = load ptr, ptr %20, align 8
  store i64 %60, ptr %61, align 8
  call void @zval_ptr_dtor(ptr noundef %21)
  store i32 0, ptr %15, align 4
  br label %62

62:                                               ; preds = %59, %45
  %63 = load i32, ptr %15, align 4
  ret i32 %63
}

; Function Attrs: nounwind uwtable
define internal ptr @spl_heap_from_obj(ptr noundef %0) #0 {
  %2 = alloca ptr, align 8
  store ptr %0, ptr %2, align 8
  %3 = load ptr, ptr %2, align 8
  %4 = getelementptr inbounds i8, ptr %3, i64 -32
  ret ptr %4
}

; Function Attrs: nounwind uwtable
define internal i32 @spl_ptr_heap_zval_min_cmp(ptr noundef %0, ptr noundef %1, ptr noundef %2) #0 {
  %4 = alloca i32, align 4
  %5 = alloca ptr, align 8
  %6 = alloca ptr, align 8
  %7 = alloca ptr, align 8
  %8 = alloca ptr, align 8
  %9 = alloca ptr, align 8
  %10 = alloca ptr, align 8
  %11 = alloca i64, align 8
  store ptr %0, ptr %5, align 8
  store ptr %1, ptr %6, align 8
  store ptr %2, ptr %7, align 8
  %12 = load ptr, ptr %5, align 8
  store ptr %12, ptr %8, align 8
  %13 = load ptr, ptr %6, align 8
  store ptr %13, ptr %9, align 8
  %14 = load ptr, ptr getelementptr inbounds (%struct._zend_executor_globals, ptr @executor_globals, i32 0, i32 50), align 8
  %15 = icmp ne ptr %14, null
  br i1 %15, label %16, label %17

16:                                               ; preds = %3
  store i32 0, ptr %4, align 4
  br label %52

17:                                               ; preds = %3
  %18 = load ptr, ptr %7, align 8
  %19 = icmp ne ptr %18, null
  br i1 %19, label %20, label %48

20:                                               ; preds = %17
  %21 = load ptr, ptr %7, align 8
  %22 = getelementptr inbounds %struct._zval_struct, ptr %21, i32 0, i32 0
  %23 = load ptr, ptr %22, align 8
  %24 = call ptr @spl_heap_from_obj(ptr noundef %23)
  store ptr %24, ptr %10, align 8
  %25 = load ptr, ptr %10, align 8
  %26 = getelementptr inbounds %struct._spl_heap_object, ptr %25, i32 0, i32 2
  %27 = load ptr, ptr %26, align 8
  %28 = icmp ne ptr %27, null
  br i1 %28, label %29, label %47

29:                                               ; preds = %20
  store i64 0, ptr %11, align 8
  %30 = load ptr, ptr %7, align 8
  %31 = load ptr, ptr %10, align 8
  %32 = load ptr, ptr %8, align 8
  %33 = load ptr, ptr %9, align 8
  %34 = call i32 @spl_ptr_heap_cmp_cb_helper(ptr noundef %30, ptr noundef %31, ptr noundef %32, ptr noundef %33, ptr noundef %11)
  %35 = icmp eq i32 %34, -1
  br i1 %35, label %36, label %37

36:                                               ; preds = %29
  store i32 0, ptr %4, align 4
  br label %52

37:                                               ; preds = %29
  %38 = load i64, ptr %11, align 8
  %39 = icmp ne i64 %38, 0
  br i1 %39, label %40, label %44

40:                                               ; preds = %37
  %41 = load i64, ptr %11, align 8
  %42 = icmp slt i64 %41, 0
  %43 = select i1 %42, i32 -1, i32 1
  br label %45

44:                                               ; preds = %37
  br label %45

45:                                               ; preds = %44, %40
  %46 = phi i32 [ %43, %40 ], [ 0, %44 ]
  store i32 %46, ptr %4, align 4
  br label %52

47:                                               ; preds = %20
  br label %48

48:                                               ; preds = %47, %17
  %49 = load ptr, ptr %9, align 8
  %50 = load ptr, ptr %8, align 8
  %51 = call i32 @zend_compare(ptr noundef %49, ptr noundef %50)
  store i32 %51, ptr %4, align 4
  br label %52

52:                                               ; preds = %48, %45, %36, %16
  %53 = load i32, ptr %4, align 4
  ret i32 %53
}